target datalayout = "e-m:e-p270:32:32-p271:32:32-p272:64:64-i64:64-i128:128-f80:128-n8:16:32:64-S128"
target triple = "x86_64-pc-linux-gnu"

%struct.mbedtls_net_context = type { i32 }

; Function Attrs: nounwind uwtable
define internal i32 @net_would_block(ptr noundef %0) #0 {
  %2 = alloca i32, align 4
  %3 = alloca ptr, align 8
  %4 = alloca i32, align 4
  %5 = alloca i32, align 4
  store ptr %0, ptr %3, align 8, !tbaa !3
  call void @llvm.lifetime.start.p0(i64 4, ptr %4) #7
  %6 = call ptr @__errno_location() #8
  %7 = load i32, ptr %6, align 4, !tbaa !13
  store i32 %7, ptr %4, align 4, !tbaa !13
  %8 = load ptr, ptr %3, align 8, !tbaa !3
  %9 = getelementptr inbounds nuw %struct.mbedtls_net_context, ptr %8, i32 0, i32 0
  %10 = load i32, ptr %9, align 4, !tbaa !8
  %11 = call i32 (i32, i32, ...) @fcntl(i32 noundef %10, i32 noundef 3)
  %12 = and i32 %11, 2048
  %13 = icmp ne i32 %12, 2048
  br i1 %13, label %14, label %17

14:                                               ; preds = %1
  %15 = load i32, ptr %4, align 4, !tbaa !13
  %16 = call ptr @__errno_location() #8
  store i32 %15, ptr %16, align 4, !tbaa !13
  store i32 0, ptr %2, align 4
  store i32 1, ptr %5, align 4
  br label %22

17:                                               ; preds = %1
  %18 = load i32, ptr %4, align 4, !tbaa !13
  %19 = call ptr @__errno_location() #8
  store i32 %18, ptr %19, align 4, !tbaa !13
  switch i32 %18, label %21 [
    i32 11, label %20
  ]

20:                                               ; preds = %17
  store i32 1, ptr %2, align 4
  store i32 1, ptr %5, align 4
  br label %22

21:                                               ; preds = %17
  store i32 0, ptr %2, align 4
  store i32 1, ptr %5, align 4
  br label %22

22:                                               ; preds = %21, %20, %14
  call void @llvm.lifetime.end.p0(i64 4, ptr %4) #7
  %23 = load i32, ptr %2, align 4
  ret i32 %23
}

; Function Attrs: nounwind uwtable
define internal i32 @check_fd(i32 noundef %0, i32 noundef %1) #0 {
  %3 = alloca i32, align 4
  %4 = alloca i32, align 4
  %5 = alloca i32, align 4
  store i32 %0, ptr %4, align 4, !tbaa !13
  store i32 %1, ptr %5, align 4, !tbaa !13
  %6 = load i32, ptr %4, align 4, !tbaa !13
  %7 = icmp slt i32 %6, 0
  br i1 %7, label %8, label %9

8:                                                ; preds = %2
  store i32 -69, ptr %3, align 4
  br label %17

9:                                                ; preds = %2
  %10 = load i32, ptr %5, align 4, !tbaa !13
  %11 = icmp ne i32 %10, 0
  br i1 %11, label %12, label %16

12:                                               ; preds = %9
  %13 = load i32, ptr %4, align 4, !tbaa !13
  %14 = icmp sge i32 %13, 1024
  br i1 %14, label %15, label %16

15:                                               ; preds = %12
  store i32 -71, ptr %3, align 4
  br label %17

16:                                               ; preds = %12, %9
  store i32 0, ptr %3, align 4
  br label %17

17:                                               ; preds = %16, %15, %8
  %18 = load i32, ptr %3, align 4
  ret i32 %18
}

; Function Attrs: nounwind uwtable
define hidden i32 @mbedtls_net_send(ptr noundef %0, ptr noundef %1, i64 noundef %2) #0 {
  %4 = alloca i32, align 4
  %5 = alloca ptr, align 8
  %6 = alloca ptr, align 8
  %7 = alloca i64, align 8
  %8 = alloca i32, align 4
  %9 = alloca i32, align 4
  %10 = alloca i32, align 4
  store ptr %0, ptr %5, align 8, !tbaa !28
  store ptr %1, ptr %6, align 8, !tbaa !11
  store i64 %2, ptr %7, align 8, !tbaa !29
  call void @llvm.lifetime.start.p0(i64 4, ptr %8) #7
  store i32 -110, ptr %8, align 4, !tbaa !13
  call void @llvm.lifetime.start.p0(i64 4, ptr %9) #7
  %11 = load ptr, ptr %5, align 8, !tbaa !28
  %12 = getelementptr inbounds nuw %struct.mbedtls_net_context, ptr %11, i32 0, i32 0
  %13 = load i32, ptr %12, align 4, !tbaa !8
  store i32 %13, ptr %9, align 4, !tbaa !13
  %14 = load i32, ptr %9, align 4, !tbaa !13
  %15 = call i32 @check_fd(i32 noundef %14, i32 noundef 0)
  store i32 %15, ptr %8, align 4, !tbaa !13
  %16 = load i32, ptr %8, align 4, !tbaa !13
  %17 = icmp ne i32 %16, 0
  br i1 %17, label %18, label %20

18:                                               ; preds = %3
  %19 = load i32, ptr %8, align 4, !tbaa !13
  store i32 %19, ptr %4, align 4
  store i32 1, ptr %10, align 4
  br label %50

20:                                               ; preds = %3
  %21 = load i32, ptr %9, align 4, !tbaa !13
  %22 = load ptr, ptr %6, align 8, !tbaa !11
  %23 = load i64, ptr %7, align 8, !tbaa !29
  %24 = call i64 @write(i32 noundef %21, ptr noundef %22, i64 noundef %23)
  %25 = trunc i64 %24 to i32
  store i32 %25, ptr %8, align 4, !tbaa !13
  %26 = load i32, ptr %8, align 4, !tbaa !13
  %27 = icmp slt i32 %26, 0
  br i1 %27, label %28, label %48

28:                                               ; preds = %20
  %29 = load ptr, ptr %5, align 8, !tbaa !28
  %30 = call i32 @net_would_block(ptr noundef %29)
  %31 = icmp ne i32 %30, 0
  br i1 %31, label %32, label %33

32:                                               ; preds = %28
  store i32 -26752, ptr %4, align 4
  store i32 1, ptr %10, align 4
  br label %50

33:                                               ; preds = %28
  %34 = call ptr @__errno_location() #8
  %35 = load i32, ptr %34, align 4, !tbaa !13
  %36 = icmp eq i32 %35, 32
  br i1 %36, label %41, label %37

37:                                               ; preds = %33
  %38 = call ptr @__errno_location() #8
  %39 = load i32, ptr %38, align 4, !tbaa !13
  %40 = icmp eq i32 %39, 104
  br i1 %40, label %41, label %42

41:                                               ; preds = %37, %33
  store i32 -80, ptr %4, align 4
  store i32 1, ptr %10, align 4
  br label %50

42:                                               ; preds = %37
  %43 = call ptr @__errno_location() #8
  %44 = load i32, ptr %43, align 4, !tbaa !13
  %45 = icmp eq i32 %44, 4
  br i1 %45, label %46, label %47

46:                                               ; preds = %42
  store i32 -26752, ptr %4, align 4
  store i32 1, ptr %10, align 4
  br label %50

47:                                               ; preds = %42
  store i32 -78, ptr %4, align 4
  store i32 1, ptr %10, align 4
  br label %50

48:                                               ; preds = %20
  %49 = load i32, ptr %8, align 4, !tbaa !13
  store i32 %49, ptr %4, align 4
  store i32 1, ptr %10, align 4
  br label %50

50:                                               ; preds = %48, %47, %46, %41, %32, %18
  call void @llvm.lifetime.end.p0(i64 4, ptr %9) #7
  call void @llvm.lifetime.end.p0(i64 4, ptr %8) #7
  %51 = load i32, ptr %4, align 4
  ret i32 %51
}